; Function Attrs: mustprogress uwtable
define void @_ZN5osgeo4proj3crs11GeodeticCRS6createERKNS0_4util11PropertyMapERKN7dropbox6oxygen2nnISt10shared_ptrINS0_5datum22GeodeticReferenceFrameEEEERKNS9_ISA_INS0_2cs11SphericalCSEEEE(ptr dead_on_unwind noalias writable sret(%"class.dropbox::oxygen::nn.245") align 8 %0, ptr noundef nonnull align 8 dereferenceable(8) %1, ptr noundef nonnull align 8 dereferenceable(16) %2, ptr noundef nonnull align 8 dereferenceable(16) %3) local_unnamed_addr #6 align 2 personality ptr @__gxx_personality_v0 {
  %5 = alloca %"class.std::shared_ptr.93", align 8
  call void @llvm.memset.p0.i64(ptr noundef nonnull align 8 dereferenceable(16) %5, i8 0, i64 16, i1 false)
  invoke void @_ZN5osgeo4proj3crs11GeodeticCRS6createERKNS0_4util11PropertyMapERKSt10shared_ptrINS0_5datum22GeodeticReferenceFrameEERKS7_INS8_13DatumEnsembleEERKN7dropbox6oxygen2nnIS7_INS0_2cs11SphericalCSEEEE(ptr dead_on_unwind writable sret(%"class.dropbox::oxygen::nn.245") align 8 %0, ptr noundef nonnull align 8 dereferenceable(8) %1, ptr noundef nonnull align 8 dereferenceable(16) %2, ptr noundef nonnull align 8 dereferenceable(16) %5, ptr noundef nonnull align 8 dereferenceable(16) %3)
          to label %6 unwind label %43

6:                                                ; preds = %4
  %7 = getelementptr inbounds i8, ptr %5, i64 8
  %8 = load ptr, ptr %7, align 8
  %.not.i.i.i = icmp eq ptr %8, null
  br i1 %.not.i.i.i, label %_ZNSt10shared_ptrIN5osgeo4proj5datum13DatumEnsembleEED2Ev.exit, label %9

9:                                                ; preds = %6
  %10 = getelementptr inbounds i8, ptr %8, i64 8
  %11 = load atomic i64, ptr %10 acquire, align 8
  %12 = icmp eq i64 %11, 4294967297
  %13 = trunc i64 %11 to i32
  br i1 %12, label %14, label %19

14:                                               ; preds = %9
  store i32 0, ptr %10, align 8
  %15 = getelementptr inbounds i8, ptr %8, i64 12
  store i32 0, ptr %15, align 4
  %16 = load ptr, ptr %8, align 8
  %17 = getelementptr inbounds i8, ptr %16, i64 16
  %18 = load ptr, ptr %17, align 8
  call void %18(ptr noundef nonnull align 8 dereferenceable(16) %8) #37
  br label %_ZNSt16_Sp_counted_baseILN9__gnu_cxx12_Lock_policyE2EE24_M_release_last_use_coldEv.exit.sink.split.i.i.i.i

19:                                               ; preds = %9
  %20 = load i8, ptr @__libc_single_threaded, align 1
  %.not.i.i.i.i = icmp eq i8 %20, 0
  br i1 %.not.i.i.i.i, label %23, label %21

21:                                               ; preds = %19
  %22 = add nsw i32 %13, -1
  store i32 %22, ptr %10, align 4
  br label %25

23:                                               ; preds = %19
  %24 = atomicrmw volatile add ptr %10, i32 -1 acq_rel, align 4
  br label %25

25:                                               ; preds = %23, %21
  %.0.i.i.i.i = phi i32 [ %13, %21 ], [ %24, %23 ]
  %26 = icmp eq i32 %.0.i.i.i.i, 1
  br i1 %26, label %27, label %_ZNSt10shared_ptrIN5osgeo4proj5datum13DatumEnsembleEED2Ev.exit

27:                                               ; preds = %25
  %28 = load ptr, ptr %8, align 8
  %29 = getelementptr inbounds i8, ptr %28, i64 16
  %30 = load ptr, ptr %29, align 8
  call void %30(ptr noundef nonnull align 8 dereferenceable(16) %8) #37
  %31 = getelementptr inbounds i8, ptr %8, i64 12
  %32 = load i8, ptr @__libc_single_threaded, align 1
  %.not.i.i.i.i.i.i = icmp eq i8 %32, 0
  br i1 %.not.i.i.i.i.i.i, label %36, label %33

33:                                               ; preds = %27
  %34 = load i32, ptr %31, align 4
  %35 = add nsw i32 %34, -1
  store i32 %35, ptr %31, align 4
  br label %38

36:                                               ; preds = %27
  %37 = atomicrmw volatile add ptr %31, i32 -1 acq_rel, align 4
  br label %38

38:                                               ; preds = %36, %33
  %.0.i.i.i.i.i.i = phi i32 [ %34, %33 ], [ %37, %36 ]
  %39 = icmp eq i32 %.0.i.i.i.i.i.i, 1
  br i1 %39, label %_ZNSt16_Sp_counted_baseILN9__gnu_cxx12_Lock_policyE2EE24_M_release_last_use_coldEv.exit.sink.split.i.i.i.i, label %_ZNSt10shared_ptrIN5osgeo4proj5datum13DatumEnsembleEED2Ev.exit

_ZNSt16_Sp_counted_baseILN9__gnu_cxx12_Lock_policyE2EE24_M_release_last_use_coldEv.exit.sink.split.i.i.i.i: ; preds = %38, %14
  %40 = load ptr, ptr %8, align 8
  %41 = getelementptr inbounds i8, ptr %40, i64 24
  %42 = load ptr, ptr %41, align 8
  call void %42(ptr noundef nonnull align 8 dereferenceable(16) %8) #37
  br label %_ZNSt10shared_ptrIN5osgeo4proj5datum13DatumEnsembleEED2Ev.exit

_ZNSt10shared_ptrIN5osgeo4proj5datum13DatumEnsembleEED2Ev.exit: ; preds = %6, %25, %38, %_ZNSt16_Sp_counted_baseILN9__gnu_cxx12_Lock_policyE2EE24_M_release_last_use_coldEv.exit.sink.split.i.i.i.i
  ret void

43:                                               ; preds = %4
  %44 = landingpad { ptr, i32 }
          cleanup
  call void @_ZNSt10shared_ptrIN5osgeo4proj5datum13DatumEnsembleEED2Ev(ptr noundef nonnull align 8 dereferenceable(16) %5) #37
  resume { ptr, i32 } %44
}